(dp0
Vengine
p1
S'pdflatex'
p2
sVpackages
p3
c__builtin__
set
p4
((lp5
Vhyperref
p6
aVmulticol
p7
aVverbatim
p8
aVnicefrac
p9
aVbabel
p10
aVinputenc
p11
aVgraphicx
p12
aVsubcaption
p13
atp14
Rp15
sVfiles_with_guttermarks
p16
g4
((lp17
V/Users/gilles/Projects/UAN/Clase y material/Programacion cientifica/Taller/Taller2/./Taller2.tex
p18
aS'Taller2.tex'
p19
atp20
Rp21
sVsynctex
p22
I01
s.